target datalayout = "e-m:e-p270:32:32-p271:32:32-p272:64:64-i64:64-i128:128-f80:128-n8:16:32:64-S128"
target triple = "x86_64-unknown-linux-gnu"

%struct.MemoryRegion = type { %struct.Object, i8, i8, i8, i8, i8, i8, i8, i8, i8, i8, ptr, ptr, ptr, ptr, ptr, ptr, i32, i128, i64, ptr, i64, i8, i8, i8, i8, i8, ptr, i64, i32, %union.anon, %union.anon.0, %union.anon.1, ptr, i32, ptr, ptr, i8 }
%struct.Object = type { ptr, ptr, ptr, i32, ptr }
%union.anon = type { %struct.QTailQLink }
%struct.QTailQLink = type { ptr, ptr }
%union.anon.0 = type { %struct.QTailQLink }
%union.anon.1 = type { %struct.QTailQLink }
%struct.VFIOPCIDevice = type { %struct.PCIDevice, %struct.VFIODevice, %struct.VFIOINTx, i32, ptr, i64, i32, i64, ptr, i32, ptr, ptr, i32, i32, [6 x %struct.VFIOBAR], ptr, ptr, %struct.PCIHostDeviceAddress, %struct.QemuUUID, %struct.EventNotifier, %struct.EventNotifier, ptr, i32, i32, i32, i32, i32, i32, i32, i32, i32, i32, i32, i8, i8, i8, i8, i8, i8, i8, i8, i8, i8, i8, i8, i8, i8, i32, i8, i8, ptr, %struct.Notifier }
%struct.PCIDevice = type { %struct.DeviceState, i8, i8, ptr, ptr, ptr, ptr, ptr, i32, %struct.PCIReqIDCache, [64 x i8], [7 x %struct.PCIIORegion], %struct.AddressSpace, %struct.MemoryRegion, %struct.MemoryRegion, ptr, ptr, [3 x ptr], i8, i8, i32, i8, i32, ptr, ptr, ptr, ptr, ptr, ptr, %struct.MemoryRegion, %struct.MemoryRegion, %struct.MemoryRegion, ptr, i8, i32, i8, %struct.PCIExpressDevice, ptr, ptr, i32, i8, %struct.MemoryRegion, i32, ptr, ptr, ptr, ptr, ptr, i32 }
%struct.DeviceState = type { %struct.Object, ptr, ptr, i8, i8, i64, ptr, i32, i8, ptr, %struct.NamedGPIOListHead, %struct.NamedClockListHead, %struct.BusStateHead, i32, i32, i32, %struct.ResettableState, ptr, %struct.MemReentrancyGuard }
%struct.NamedGPIOListHead = type { ptr }
%struct.NamedClockListHead = type { ptr }
%struct.BusStateHead = type { ptr }
%struct.ResettableState = type { i32, i8, i8 }
%struct.MemReentrancyGuard = type { i8 }
%struct.PCIReqIDCache = type { ptr, i32 }
%struct.PCIIORegion = type { i64, i64, i8, ptr, ptr }
%struct.AddressSpace = type { %struct.rcu_head, ptr, ptr, ptr, i32, i32, ptr, %union.anon.4, %union.anon.5 }
%struct.rcu_head = type { ptr, ptr }
%union.anon.4 = type { %struct.QTailQLink }
%union.anon.5 = type { %struct.QTailQLink }
%struct.PCIExpressDevice = type { i8, i8, i8, i16, %struct.PCIEAERLog, i16, i16, i16, %struct.PCIESriovPF, %struct.PCIESriovVF }
%struct.PCIEAERLog = type { i16, i16, ptr }
%struct.PCIESriovPF = type { i16, [7 x i8], ptr, ptr }
%struct.PCIESriovVF = type { ptr, i16 }
%struct.VFIODevice = type { %struct.anon.6, %struct.anon.7, %struct.anon.8, ptr, ptr, ptr, ptr, ptr, i32, i32, i8, i8, i8, i8, i32, ptr, i32, i32, i32, ptr, ptr, i32, i8, i8 }
%struct.anon.6 = type { ptr, ptr }
%struct.anon.7 = type { ptr, ptr }
%struct.anon.8 = type { ptr, ptr }
%struct.VFIOINTx = type { i8, i8, i8, %struct.EventNotifier, %struct.EventNotifier, %struct.PCIINTxRoute, i32, ptr }
%struct.PCIINTxRoute = type { i32, i32 }
%struct.VFIOBAR = type { %struct.VFIORegion, ptr, i64, i8, i8, i8, %struct.anon.9 }
%struct.VFIORegion = type { ptr, i64, ptr, i64, i32, i32, ptr, i8 }
%struct.anon.9 = type { ptr }
%struct.PCIHostDeviceAddress = type { i32, i32, i32, i32 }
%struct.QemuUUID = type { %union.anon.10 }
%union.anon.10 = type { %struct.anon.11 }
%struct.anon.11 = type { i32, i16, i16, i8, i8, [6 x i8] }
%struct.EventNotifier = type { i32, i32, i8 }
%struct.Notifier = type { ptr, %struct.anon.12 }
%struct.anon.12 = type { ptr, ptr }
%struct.timeval = type { i64, i64 }

@.str.12 = private unnamed_addr constant [22 x i8] c"../qemu/hw/vfio/pci.c\00", align 1
@trace_events_enabled_count = external global i32, align 4
@message_with_timestamp = external global i8, align 1
@qemu_loglevel = external global i32, align 4
@.str.42 = private unnamed_addr constant [10 x i8] c"vfio %s: \00", align 1
@__func__.vfio_intx_enable = private unnamed_addr constant [17 x i8] c"vfio_intx_enable\00", align 1
@.str.43 = private unnamed_addr constant [27 x i8] c"event_notifier_init failed\00", align 1
@_TRACE_VFIO_INTX_ENABLE_DSTATE = external global i16, align 2
@.str.46 = private unnamed_addr constant [37 x i8] c"%d@%zu.%06zu:vfio_intx_enable  (%s)\0A\00", align 1
@.str.47 = private unnamed_addr constant [24 x i8] c"vfio_intx_enable  (%s)\0A\00", align 1

; Function Attrs: nounwind sspstrong uwtable
define internal zeroext i1 @qemu_loglevel_mask(i32 noundef %mask) #0 {
entry:
  %mask.addr = alloca i32, align 4
  store i32 %mask, ptr %mask.addr, align 4
  %0 = load i32, ptr @qemu_loglevel, align 4
  %1 = load i32, ptr %mask.addr, align 4
  %and = and i32 %0, %1
  %cmp = icmp ne i32 %and, 0
  ret i1 %cmp
}

; Function Attrs: nounwind sspstrong uwtable
define internal void @_nocheck__trace_vfio_intx_enable(ptr noundef %name) #0 {
entry:
  %name.addr = alloca ptr, align 8
  %_now = alloca %struct.timeval, align 8
  store ptr %name, ptr %name.addr, align 8
  %0 = load i32, ptr @trace_events_enabled_count, align 4
  %tobool = icmp ne i32 %0, 0
  %lnot = xor i1 %tobool, true
  %lnot1 = xor i1 %lnot, true
  %lnot.ext = zext i1 %lnot1 to i32
  %conv = sext i32 %lnot.ext to i64
  %tobool2 = icmp ne i64 %conv, 0
  br i1 %tobool2, label %land.lhs.true, label %if.end11

land.lhs.true:                                    ; preds = %entry
  %1 = load i16, ptr @_TRACE_VFIO_INTX_ENABLE_DSTATE, align 2
  %conv3 = zext i16 %1 to i32
  %tobool4 = icmp ne i32 %conv3, 0
  br i1 %tobool4, label %land.lhs.true5, label %if.end11

land.lhs.true5:                                   ; preds = %land.lhs.true
  %call = call zeroext i1 @qemu_loglevel_mask(i32 noundef 32768)
  br i1 %call, label %if.then, label %if.end11

if.then:                                          ; preds = %land.lhs.true5
  %2 = load i8, ptr @message_with_timestamp, align 1
  %tobool7 = trunc i8 %2 to i1
  br i1 %tobool7, label %if.then8, label %if.else

if.then8:                                         ; preds = %if.then
  %call9 = call i32 @gettimeofday(ptr noundef %_now, ptr noundef null) #16
  %call10 = call i32 @qemu_get_thread_id()
  %tv_sec = getelementptr inbounds %struct.timeval, ptr %_now, i32 0, i32 0
  %3 = load i64, ptr %tv_sec, align 8
  %tv_usec = getelementptr inbounds %struct.timeval, ptr %_now, i32 0, i32 1
  %4 = load i64, ptr %tv_usec, align 8
  %5 = load ptr, ptr %name.addr, align 8
  call void (ptr, ...) @qemu_log(ptr noundef @.str.46, i32 noundef %call10, i64 noundef %3, i64 noundef %4, ptr noundef %5)
  br label %if.end

if.else:                                          ; preds = %if.then
  %6 = load ptr, ptr %name.addr, align 8
  call void (ptr, ...) @qemu_log(ptr noundef @.str.47, ptr noundef %6)
  br label %if.end

if.end:                                           ; preds = %if.else, %if.then8
  br label %if.end11

if.end11:                                         ; preds = %if.end, %land.lhs.true5, %land.lhs.true, %entry
  ret void
}

; Function Attrs: nounwind sspstrong uwtable
define internal void @pci_set_byte(ptr noundef %config, i8 noundef zeroext %val) #0 {
entry:
  %config.addr = alloca ptr, align 8
  %val.addr = alloca i8, align 1
  store ptr %config, ptr %config.addr, align 8
  store i8 %val, ptr %val.addr, align 1
  %0 = load i8, ptr %val.addr, align 1
  %1 = load ptr, ptr %config.addr, align 8
  store i8 %0, ptr %1, align 1
  ret void
}

; Function Attrs: nounwind sspstrong uwtable
define internal void @trace_vfio_intx_enable(ptr noundef %name) #0 {
entry:
  %name.addr = alloca ptr, align 8
  store ptr %name, ptr %name.addr, align 8
  %0 = load ptr, ptr %name.addr, align 8
  call void @_nocheck__trace_vfio_intx_enable(ptr noundef %0)
  ret void
}

; Function Attrs: nounwind sspstrong uwtable
define internal void @vfio_intx_enable_kvm(ptr noundef %vdev, ptr noundef %errp) #0 {
entry:
  %vdev.addr = alloca ptr, align 8
  %errp.addr = alloca ptr, align 8
  store ptr %vdev, ptr %vdev.addr, align 8
  store ptr %errp, ptr %errp.addr, align 8
  ret void
}

; Function Attrs: nounwind sspstrong uwtable
define internal void @pci_config_set_interrupt_pin(ptr noundef %pci_config, i8 noundef zeroext %val) #0 {
entry:
  %pci_config.addr = alloca ptr, align 8
  %val.addr = alloca i8, align 1
  store ptr %pci_config, ptr %pci_config.addr, align 8
  store i8 %val, ptr %val.addr, align 1
  %0 = load ptr, ptr %pci_config.addr, align 8
  %arrayidx = getelementptr i8, ptr %0, i64 61
  %1 = load i8, ptr %val.addr, align 1
  call void @pci_set_byte(ptr noundef %arrayidx, i8 noundef zeroext %1)
  ret void
}

; Function Attrs: nounwind sspstrong uwtable
define internal i32 @vfio_intx_enable(ptr noundef %vdev, ptr noundef %errp) #0 {
entry:
  %retval = alloca i32, align 4
  %vdev.addr = alloca ptr, align 8
  %errp.addr = alloca ptr, align 8
  %pin = alloca i8, align 1
  %err = alloca ptr, align 8
  %fd = alloca i32, align 4
  %ret = alloca i32, align 4
  store ptr %vdev, ptr %vdev.addr, align 8
  store ptr %errp, ptr %errp.addr, align 8
  %0 = load ptr, ptr %vdev.addr, align 8
  %pdev = getelementptr inbounds %struct.VFIOPCIDevice, ptr %0, i32 0, i32 0
  %call = call i32 @vfio_pci_read_config(ptr noundef %pdev, i32 noundef 61, i32 noundef 1)
  %conv = trunc i32 %call to i8
  store i8 %conv, ptr %pin, align 1
  store ptr null, ptr %err, align 8
  %1 = load i8, ptr %pin, align 1
  %tobool = icmp ne i8 %1, 0
  br i1 %tobool, label %if.end, label %if.then

if.then:                                          ; preds = %entry
  store i32 0, ptr %retval, align 4
  br label %return

if.end:                                           ; preds = %entry
  %2 = load ptr, ptr %vdev.addr, align 8
  call void @vfio_disable_interrupts(ptr noundef %2)
  %3 = load i8, ptr %pin, align 1
  %conv1 = zext i8 %3 to i32
  %sub = sub i32 %conv1, 1
  %conv2 = trunc i32 %sub to i8
  %4 = load ptr, ptr %vdev.addr, align 8
  %intx = getelementptr inbounds %struct.VFIOPCIDevice, ptr %4, i32 0, i32 2
  %pin3 = getelementptr inbounds %struct.VFIOINTx, ptr %intx, i32 0, i32 2
  store i8 %conv2, ptr %pin3, align 2
  %5 = load ptr, ptr %vdev.addr, align 8
  %pdev4 = getelementptr inbounds %struct.VFIOPCIDevice, ptr %5, i32 0, i32 0
  %config = getelementptr inbounds %struct.PCIDevice, ptr %pdev4, i32 0, i32 3
  %6 = load ptr, ptr %config, align 8
  %7 = load i8, ptr %pin, align 1
  call void @pci_config_set_interrupt_pin(ptr noundef %6, i8 noundef zeroext %7)
  %8 = load ptr, ptr %vdev.addr, align 8
  %intx5 = getelementptr inbounds %struct.VFIOPCIDevice, ptr %8, i32 0, i32 2
  %interrupt = getelementptr inbounds %struct.VFIOINTx, ptr %intx5, i32 0, i32 3
  %call6 = call i32 @event_notifier_init(ptr noundef %interrupt, i32 noundef 0)
  store i32 %call6, ptr %ret, align 4
  %9 = load i32, ptr %ret, align 4
  %tobool7 = icmp ne i32 %9, 0
  br i1 %tobool7, label %if.then8, label %if.end10

if.then8:                                         ; preds = %if.end
  %10 = load ptr, ptr %errp.addr, align 8
  %11 = load i32, ptr %ret, align 4
  %sub9 = sub i32 0, %11
  call void (ptr, ptr, i32, ptr, i32, ptr, ...) @error_setg_errno_internal(ptr noundef %10, ptr noundef @.str.12, i32 noundef 290, ptr noundef @__func__.vfio_intx_enable, i32 noundef %sub9, ptr noundef @.str.43)
  %12 = load i32, ptr %ret, align 4
  store i32 %12, ptr %retval, align 4
  br label %return

if.end10:                                         ; preds = %if.end
  %13 = load ptr, ptr %vdev.addr, align 8
  %intx11 = getelementptr inbounds %struct.VFIOPCIDevice, ptr %13, i32 0, i32 2
  %interrupt12 = getelementptr inbounds %struct.VFIOINTx, ptr %intx11, i32 0, i32 3
  %call13 = call i32 @event_notifier_get_fd(ptr noundef %interrupt12)
  store i32 %call13, ptr %fd, align 4
  %14 = load i32, ptr %fd, align 4
  %15 = load ptr, ptr %vdev.addr, align 8
  call void @qemu_set_fd_handler(i32 noundef %14, ptr noundef @vfio_intx_interrupt, ptr noundef null, ptr noundef %15)
  %16 = load ptr, ptr %vdev.addr, align 8
  %vbasedev = getelementptr inbounds %struct.VFIOPCIDevice, ptr %16, i32 0, i32 1
  %17 = load i32, ptr %fd, align 4
  %18 = load ptr, ptr %errp.addr, align 8
  %call14 = call i32 @vfio_set_irq_signaling(ptr noundef %vbasedev, i32 noundef 0, i32 noundef 0, i32 noundef 32, i32 noundef %17, ptr noundef %18)
  %tobool15 = icmp ne i32 %call14, 0
  br i1 %tobool15, label %if.then16, label %if.end21

if.then16:                                        ; preds = %if.end10
  %19 = load i32, ptr %fd, align 4
  %20 = load ptr, ptr %vdev.addr, align 8
  call void @qemu_set_fd_handler(i32 noundef %19, ptr noundef null, ptr noundef null, ptr noundef %20)
  %21 = load ptr, ptr %vdev.addr, align 8
  %intx17 = getelementptr inbounds %struct.VFIOPCIDevice, ptr %21, i32 0, i32 2
  %interrupt18 = getelementptr inbounds %struct.VFIOINTx, ptr %intx17, i32 0, i32 3
  call void @event_notifier_cleanup(ptr noundef %interrupt18)
  %call19 = call ptr @__errno_location() #14
  %22 = load i32, ptr %call19, align 4
  %sub20 = sub i32 0, %22
  store i32 %sub20, ptr %retval, align 4
  br label %return

if.end21:                                         ; preds = %if.end10
  %23 = load ptr, ptr %vdev.addr, align 8
  call void @vfio_intx_enable_kvm(ptr noundef %23, ptr noundef %err)
  %24 = load ptr, ptr %err, align 8
  %tobool22 = icmp ne ptr %24, null
  br i1 %tobool22, label %if.then23, label %if.end25

if.then23:                                        ; preds = %if.end21
  %25 = load ptr, ptr %err, align 8
  %26 = load ptr, ptr %vdev.addr, align 8
  %vbasedev24 = getelementptr inbounds %struct.VFIOPCIDevice, ptr %26, i32 0, i32 1
  %name = getelementptr inbounds %struct.VFIODevice, ptr %vbasedev24, i32 0, i32 6
  %27 = load ptr, ptr %name, align 8
  call void (ptr, ptr, ...) @warn_reportf_err(ptr noundef %25, ptr noundef @.str.42, ptr noundef %27)
  br label %if.end25

if.end25:                                         ; preds = %if.then23, %if.end21
  %28 = load ptr, ptr %vdev.addr, align 8
  %interrupt26 = getelementptr inbounds %struct.VFIOPCIDevice, ptr %28, i32 0, i32 13
  store i32 1, ptr %interrupt26, align 4
  %29 = load ptr, ptr %vdev.addr, align 8
  %vbasedev27 = getelementptr inbounds %struct.VFIOPCIDevice, ptr %29, i32 0, i32 1
  %name28 = getelementptr inbounds %struct.VFIODevice, ptr %vbasedev27, i32 0, i32 6
  %30 = load ptr, ptr %name28, align 8
  call void @trace_vfio_intx_enable(ptr noundef %30)
  store i32 0, ptr %retval, align 4
  br label %return

return:                                           ; preds = %if.end25, %if.then16, %if.then8, %if.then
  %31 = load i32, ptr %retval, align 4
  ret i32 %31
}