; Function Attrs: nounwind sspstrong uwtable
define internal fastcc i32 @vfio_intx_enable(ptr noundef %vdev, ptr noundef %errp) unnamed_addr #0 {
entry:
  %_now.i.i = alloca %struct.timeval, align 8
  %call = tail call i32 @vfio_pci_read_config(ptr noundef %vdev, i32 noundef 61, i32 noundef 1)
  %conv = trunc i32 %call to i8
  %tobool.not = icmp eq i8 %conv, 0
  br i1 %tobool.not, label %return, label %if.end

if.end:                                           ; preds = %entry
  tail call fastcc void @vfio_disable_interrupts(ptr noundef %vdev)
  %conv2 = add i8 %conv, -1
  %pin3 = getelementptr inbounds nuw i8, ptr %vdev, i64 2762
  store i8 %conv2, ptr %pin3, align 2
  %config = getelementptr inbounds nuw i8, ptr %vdev, i64 168
  %0 = load ptr, ptr %config, align 8
  %arrayidx.i = getelementptr i8, ptr %0, i64 61
  store i8 %conv, ptr %arrayidx.i, align 1
  %interrupt = getelementptr inbounds nuw i8, ptr %vdev, i64 2764
  %call6 = tail call i32 @event_notifier_init(ptr noundef nonnull %interrupt, i32 noundef 0) #23
  %tobool7.not = icmp eq i32 %call6, 0
  br i1 %tobool7.not, label %if.end10, label %if.then8

if.then8:                                         ; preds = %if.end
  %sub9 = sub i32 0, %call6
  tail call void (ptr, ptr, i32, ptr, i32, ptr, ...) @error_setg_errno_internal(ptr noundef %errp, ptr noundef nonnull @.str.12, i32 noundef 290, ptr noundef nonnull @__func__.vfio_intx_enable, i32 noundef %sub9, ptr noundef nonnull @.str.43) #23
  br label %return

if.end10:                                         ; preds = %if.end
  %call13 = tail call i32 @event_notifier_get_fd(ptr noundef nonnull %interrupt) #23
  tail call void @qemu_set_fd_handler(i32 noundef %call13, ptr noundef nonnull @vfio_intx_interrupt, ptr noundef null, ptr noundef nonnull %vdev) #23
  %vbasedev = getelementptr inbounds nuw i8, ptr %vdev, i64 2608
  %call14 = tail call i32 @vfio_set_irq_signaling(ptr noundef nonnull %vbasedev, i32 noundef 0, i32 noundef 0, i32 noundef 32, i32 noundef %call13, ptr noundef %errp) #23
  %tobool15.not = icmp eq i32 %call14, 0
  br i1 %tobool15.not, label %if.end25, label %if.then16

if.then16:                                        ; preds = %if.end10
  tail call void @qemu_set_fd_handler(i32 noundef %call13, ptr noundef null, ptr noundef null, ptr noundef nonnull %vdev) #23
  tail call void @event_notifier_cleanup(ptr noundef nonnull %interrupt) #23
  %call19 = tail call ptr @__errno_location() #24
  %1 = load i32, ptr %call19, align 4
  %sub20 = sub i32 0, %1
  br label %return

if.end25:                                         ; preds = %if.end10
  %interrupt26 = getelementptr inbounds nuw i8, ptr %vdev, i64 2884
  store i32 1, ptr %interrupt26, align 4
  %name28 = getelementptr inbounds nuw i8, ptr %vdev, i64 2680
  %2 = load ptr, ptr %name28, align 8
  call void @llvm.lifetime.start.p0(i64 16, ptr nonnull %_now.i.i)
  %3 = load i32, ptr @trace_events_enabled_count, align 4
  %tobool.i.i = icmp ne i32 %3, 0
  %4 = load i16, ptr @_TRACE_VFIO_INTX_ENABLE_DSTATE, align 2
  %tobool4.i.i = icmp ne i16 %4, 0
  %or.cond.i.i = select i1 %tobool.i.i, i1 %tobool4.i.i, i1 false
  br i1 %or.cond.i.i, label %land.lhs.true5.i.i, label %trace_vfio_intx_enable.exit

land.lhs.true5.i.i:                               ; preds = %if.end25
  %5 = load i32, ptr @qemu_loglevel, align 4
  %and.i.i.i = and i32 %5, 32768
  %cmp.i.not.i.i = icmp eq i32 %and.i.i.i, 0
  br i1 %cmp.i.not.i.i, label %trace_vfio_intx_enable.exit, label %if.then.i.i

if.then.i.i:                                      ; preds = %land.lhs.true5.i.i
  %6 = load i8, ptr @message_with_timestamp, align 1
  %tobool7.i.i = trunc i8 %6 to i1
  br i1 %tobool7.i.i, label %if.then8.i.i, label %if.else.i.i

if.then8.i.i:                                     ; preds = %if.then.i.i
  %call9.i.i = call i32 @gettimeofday(ptr noundef nonnull %_now.i.i, ptr noundef null) #23
  %call10.i.i = tail call i32 @qemu_get_thread_id() #23
  %7 = load i64, ptr %_now.i.i, align 8
  %tv_usec.i.i = getelementptr inbounds nuw i8, ptr %_now.i.i, i64 8
  %8 = load i64, ptr %tv_usec.i.i, align 8
  tail call void (ptr, ...) @qemu_log(ptr noundef nonnull @.str.46, i32 noundef %call10.i.i, i64 noundef %7, i64 noundef %8, ptr noundef %2) #23
  br label %trace_vfio_intx_enable.exit

if.else.i.i:                                      ; preds = %if.then.i.i
  tail call void (ptr, ...) @qemu_log(ptr noundef nonnull @.str.47, ptr noundef %2) #23
  br label %trace_vfio_intx_enable.exit

trace_vfio_intx_enable.exit:                      ; preds = %if.end25, %land.lhs.true5.i.i, %if.then8.i.i, %if.else.i.i
  call void @llvm.lifetime.end.p0(i64 16, ptr nonnull %_now.i.i)
  br label %return

return:                                           ; preds = %entry, %trace_vfio_intx_enable.exit, %if.then16, %if.then8
  %retval.0 = phi i32 [ %call6, %if.then8 ], [ %sub20, %if.then16 ], [ 0, %trace_vfio_intx_enable.exit ], [ 0, %entry ]
  ret i32 %retval.0
}